target datalayout = "e-m:e-p270:32:32-p271:32:32-p272:64:64-i64:64-i128:128-f80:128-n8:16:32:64-S128"
target triple = "x86_64-pc-linux-gnu"

%struct.expert_field = type { i32, i32 }
%struct._packet_info = type { ptr, ptr, i32, i32, %struct.nstime_t, %struct.nstime_t, %struct.nstime_t, i8, ptr, ptr, ptr, ptr, %struct._address, %struct._address, %struct._address, %struct._address, %struct._address, %struct._address, i32, ptr, i8, [3 x i8], %struct.anon, i32, i32, i32, i32, ptr, i8, ptr, ptr, i16, i16, i32, i32, i16, i32, i32, ptr, ptr, ptr, i8, i8, i16, i16, i16, i32, i16, i16, ptr, ptr, ptr, ptr, ptr, i32, i32 }
%struct.nstime_t = type { i64, i32 }
%struct._address = type { i32, i32, ptr, ptr }
%struct.anon = type { i8, [3 x i8] }

@ei_gsm_a_gm_extraneous_data = internal global %struct.expert_field zeroinitializer, align 4
@.str.83 = private unnamed_addr constant [1 x i8] zeroinitializer, align 1
@ei_gsm_a_gm_missing_mandatory_element = internal global %struct.expert_field zeroinitializer, align 4
@.str.1095 = private unnamed_addr constant [62 x i8] c"Missing Mandatory element %s%s, rest of dissection is suspect\00", align 1
@.str.1096 = private unnamed_addr constant [64 x i8] c"Missing Mandatory elements %s %s, rest of dissection is suspect\00", align 1
@.str.1110 = private unnamed_addr constant [15 x i8] c" - T3302 value\00", align 1
@.str.1117 = private unnamed_addr constant [15 x i8] c" - T3346 value\00", align 1

; Function Attrs: null_pointer_is_valid sspstrong uwtable
define internal void @dtap_gmm_rau_rej(ptr noundef %0, ptr noundef %1, ptr noundef %2, i32 noundef %3, i32 noundef %4) #1 {
  %6 = alloca ptr, align 8
  %7 = alloca ptr, align 8
  %8 = alloca ptr, align 8
  %9 = alloca i32, align 4
  %10 = alloca i32, align 4
  %11 = alloca i32, align 4
  %12 = alloca i32, align 4
  %13 = alloca i32, align 4
  %14 = alloca i32, align 4
  store ptr %0, ptr %6, align 8
  store ptr %1, ptr %7, align 8
  store ptr %2, ptr %8, align 8
  store i32 %3, ptr %9, align 4
  store i32 %4, ptr %10, align 4
  call void @llvm.lifetime.start.p0(i64 4, ptr %11) #6
  call void @llvm.lifetime.start.p0(i64 4, ptr %12) #6
  call void @llvm.lifetime.start.p0(i64 4, ptr %13) #6
  %15 = load i32, ptr %9, align 4
  store i32 %15, ptr %11, align 4
  %16 = load i32, ptr %10, align 4
  store i32 %16, ptr %13, align 4
  %17 = load ptr, ptr %8, align 8
  %18 = getelementptr inbounds nuw %struct._packet_info, ptr %17, i32 0, i32 37
  store i32 0, ptr %18, align 4
  %19 = load i32, ptr %13, align 4
  %20 = icmp sgt i32 %19, 0
  br i1 %20, label %21, label %36

21:                                               ; preds = %5
  %22 = load ptr, ptr %6, align 8
  %23 = load ptr, ptr %7, align 8
  %24 = load ptr, ptr %8, align 8
  %25 = load i32, ptr %11, align 4
  %26 = call zeroext i16 @elem_v(ptr noundef %22, ptr noundef %23, ptr noundef %24, i32 noundef 5, i32 noundef 17, i32 noundef %25, ptr noundef null)
  %27 = zext i16 %26 to i32
  store i32 %27, ptr %12, align 4
  %28 = icmp ugt i32 %27, 0
  br i1 %28, label %29, label %36

29:                                               ; preds = %21
  %30 = load i32, ptr %12, align 4
  %31 = load i32, ptr %11, align 4
  %32 = add i32 %31, %30
  store i32 %32, ptr %11, align 4
  %33 = load i32, ptr %12, align 4
  %34 = load i32, ptr %13, align 4
  %35 = sub i32 %34, %33
  store i32 %35, ptr %13, align 4
  br label %43

36:                                               ; preds = %21, %5
  %37 = load ptr, ptr %7, align 8
  %38 = load ptr, ptr %8, align 8
  %39 = load ptr, ptr %6, align 8
  %40 = load i32, ptr %11, align 4
  %41 = call ptr @get_gsm_a_msg_string(i32 noundef 5, i32 noundef 17)
  %42 = call ptr (ptr, ptr, ptr, ptr, i32, i32, ptr, ...) @proto_tree_add_expert_format(ptr noundef %37, ptr noundef %38, ptr noundef @ei_gsm_a_gm_missing_mandatory_element, ptr noundef %39, i32 noundef %40, i32 noundef 0, ptr noundef @.str.1095, ptr noundef %41, ptr noundef @.str.83)
  br label %43

43:                                               ; preds = %36, %29
  %44 = load i32, ptr %13, align 4
  %45 = icmp sgt i32 %44, 0
  br i1 %45, label %46, label %61

46:                                               ; preds = %43
  %47 = load ptr, ptr %6, align 8
  %48 = load ptr, ptr %7, align 8
  %49 = load ptr, ptr %8, align 8
  %50 = load i32, ptr %11, align 4
  %51 = call zeroext i16 @elem_v_short(ptr noundef %47, ptr noundef %48, ptr noundef %49, i32 noundef 5, i32 noundef 8, i32 noundef %50, i32 noundef 1)
  %52 = load ptr, ptr %6, align 8
  %53 = load ptr, ptr %7, align 8
  %54 = load ptr, ptr %8, align 8
  %55 = load i32, ptr %11, align 4
  %56 = call zeroext i16 @elem_v_short(ptr noundef %52, ptr noundef %53, ptr noundef %54, i32 noundef 4, i32 noundef 7, i32 noundef %55, i32 noundef 2)
  %57 = load i32, ptr %11, align 4
  %58 = add i32 %57, 1
  store i32 %58, ptr %11, align 4
  %59 = load i32, ptr %13, align 4
  %60 = add i32 %59, -1
  store i32 %60, ptr %13, align 4
  br label %69

61:                                               ; preds = %43
  %62 = load ptr, ptr %7, align 8
  %63 = load ptr, ptr %8, align 8
  %64 = load ptr, ptr %6, align 8
  %65 = load i32, ptr %11, align 4
  %66 = call ptr @get_gsm_a_msg_string(i32 noundef 5, i32 noundef 8)
  %67 = call ptr @get_gsm_a_msg_string(i32 noundef 4, i32 noundef 7)
  %68 = call ptr (ptr, ptr, ptr, ptr, i32, i32, ptr, ...) @proto_tree_add_expert_format(ptr noundef %62, ptr noundef %63, ptr noundef @ei_gsm_a_gm_missing_mandatory_element, ptr noundef %64, i32 noundef %65, i32 noundef 0, ptr noundef @.str.1096, ptr noundef %66, ptr noundef %67)
  br label %69

69:                                               ; preds = %61, %46
  %70 = load i32, ptr %13, align 4
  %71 = icmp sle i32 %70, 0
  br i1 %71, label %72, label %73

72:                                               ; preds = %69
  store i32 1, ptr %14, align 4
  br label %125

73:                                               ; preds = %69
  %74 = load ptr, ptr %6, align 8
  %75 = load ptr, ptr %7, align 8
  %76 = load ptr, ptr %8, align 8
  %77 = load i32, ptr %11, align 4
  %78 = load i32, ptr %13, align 4
  %79 = call zeroext i16 @elem_tlv(ptr noundef %74, ptr noundef %75, ptr noundef %76, i8 noundef zeroext 42, i32 noundef 5, i32 noundef 70, i32 noundef %77, i32 noundef %78, ptr noundef @.str.1110)
  %80 = zext i16 %79 to i32
  store i32 %80, ptr %12, align 4
  %81 = icmp ugt i32 %80, 0
  br i1 %81, label %82, label %89

82:                                               ; preds = %73
  %83 = load i32, ptr %12, align 4
  %84 = load i32, ptr %11, align 4
  %85 = add i32 %84, %83
  store i32 %85, ptr %11, align 4
  %86 = load i32, ptr %12, align 4
  %87 = load i32, ptr %13, align 4
  %88 = sub i32 %87, %86
  store i32 %88, ptr %13, align 4
  br label %89

89:                                               ; preds = %82, %73
  %90 = load i32, ptr %13, align 4
  %91 = icmp sle i32 %90, 0
  br i1 %91, label %92, label %93

92:                                               ; preds = %89
  store i32 1, ptr %14, align 4
  br label %125

93:                                               ; preds = %89
  %94 = load ptr, ptr %6, align 8
  %95 = load ptr, ptr %7, align 8
  %96 = load ptr, ptr %8, align 8
  %97 = load i32, ptr %11, align 4
  %98 = load i32, ptr %13, align 4
  %99 = call zeroext i16 @elem_tlv(ptr noundef %94, ptr noundef %95, ptr noundef %96, i8 noundef zeroext 58, i32 noundef 5, i32 noundef 70, i32 noundef %97, i32 noundef %98, ptr noundef @.str.1117)
  %100 = zext i16 %99 to i32
  store i32 %100, ptr %12, align 4
  %101 = icmp ugt i32 %100, 0
  br i1 %101, label %102, label %109

102:                                              ; preds = %93
  %103 = load i32, ptr %12, align 4
  %104 = load i32, ptr %11, align 4
  %105 = add i32 %104, %103
  store i32 %105, ptr %11, align 4
  %106 = load i32, ptr %12, align 4
  %107 = load i32, ptr %13, align 4
  %108 = sub i32 %107, %106
  store i32 %108, ptr %13, align 4
  br label %109

109:                                              ; preds = %102, %93
  %110 = load i32, ptr %13, align 4
  %111 = icmp ugt i32 %110, 0
  br i1 %111, label %112, label %124

112:                                              ; preds = %109
  %113 = load ptr, ptr %7, align 8
  %114 = load ptr, ptr %8, align 8
  %115 = load ptr, ptr %6, align 8
  %116 = load i32, ptr %11, align 4
  %117 = load i32, ptr %13, align 4
  %118 = sub i32 %117, 0
  %119 = call ptr @proto_tree_add_expert(ptr noundef %113, ptr noundef %114, ptr noundef @ei_gsm_a_gm_extraneous_data, ptr noundef %115, i32 noundef %116, i32 noundef %118)
  %120 = load i32, ptr %13, align 4
  %121 = sub i32 %120, 0
  %122 = load i32, ptr %11, align 4
  %123 = add i32 %122, %121
  store i32 %123, ptr %11, align 4
  br label %124

124:                                              ; preds = %112, %109
  store i32 0, ptr %14, align 4
  br label %125

125:                                              ; preds = %124, %92, %72
  call void @llvm.lifetime.end.p0(i64 4, ptr %13) #6
  call void @llvm.lifetime.end.p0(i64 4, ptr %12) #6
  call void @llvm.lifetime.end.p0(i64 4, ptr %11) #6
  %126 = load i32, ptr %14, align 4
  switch i32 %126, label %128 [
    i32 0, label %127
    i32 1, label %127
  ]

127:                                              ; preds = %125, %125
  ret void

128:                                              ; preds = %125
  unreachable
}