; Function Attrs: null_pointer_is_valid sspstrong uwtable
define internal void @dtap_gmm_rau_rej(ptr noundef %0, ptr noundef %1, ptr noundef initializes((348, 352)) %2, i32 noundef %3, i32 noundef %4) #1 {
  %6 = getelementptr inbounds nuw i8, ptr %2, i64 348
  store i32 0, ptr %6, align 4
  %7 = icmp sgt i32 %4, 0
  br i1 %7, label %8, label %14

8:                                                ; preds = %5
  %9 = tail call zeroext i16 @elem_v(ptr noundef %0, ptr noundef %1, ptr noundef %2, i32 noundef 5, i32 noundef 17, i32 noundef %3, ptr noundef null)
  %.not = icmp eq i16 %9, 0
  br i1 %.not, label %14, label %10

10:                                               ; preds = %8
  %11 = zext i16 %9 to i32
  %12 = add i32 %3, %11
  %13 = sub nsw i32 %4, %11
  br label %17

14:                                               ; preds = %8, %5
  %15 = tail call ptr @get_gsm_a_msg_string(i32 noundef 5, i32 noundef 17)
  %16 = tail call ptr (ptr, ptr, ptr, ptr, i32, i32, ptr, ...) @proto_tree_add_expert_format(ptr noundef %1, ptr noundef %2, ptr noundef nonnull @ei_gsm_a_gm_missing_mandatory_element, ptr noundef %0, i32 noundef %3, i32 noundef 0, ptr noundef nonnull @.str.1095, ptr noundef %15, ptr noundef nonnull @.str.83)
  br label %17

17:                                               ; preds = %14, %10
  %.058 = phi i32 [ %12, %10 ], [ %3, %14 ]
  %.0 = phi i32 [ %13, %10 ], [ %4, %14 ]
  %18 = icmp sgt i32 %.0, 0
  br i1 %18, label %22, label %.thread

.thread:                                          ; preds = %17
  %19 = tail call ptr @get_gsm_a_msg_string(i32 noundef 5, i32 noundef 8)
  %20 = tail call ptr @get_gsm_a_msg_string(i32 noundef 4, i32 noundef 7)
  %21 = tail call ptr (ptr, ptr, ptr, ptr, i32, i32, ptr, ...) @proto_tree_add_expert_format(ptr noundef %1, ptr noundef %2, ptr noundef nonnull @ei_gsm_a_gm_missing_mandatory_element, ptr noundef %0, i32 noundef %.058, i32 noundef 0, ptr noundef nonnull @.str.1096, ptr noundef %19, ptr noundef %20)
  br label %41

22:                                               ; preds = %17
  %23 = tail call zeroext i16 @elem_v_short(ptr noundef %0, ptr noundef %1, ptr noundef %2, i32 noundef 5, i32 noundef 8, i32 noundef %.058, i32 noundef 1)
  %24 = tail call zeroext i16 @elem_v_short(ptr noundef %0, ptr noundef %1, ptr noundef %2, i32 noundef 4, i32 noundef 7, i32 noundef %.058, i32 noundef 2)
  %25 = add nsw i32 %.0, -1
  %26 = icmp eq i32 %25, 0
  br i1 %26, label %41, label %27

27:                                               ; preds = %22
  %28 = add i32 %.058, 1
  %29 = tail call zeroext i16 @elem_tlv(ptr noundef %0, ptr noundef %1, ptr noundef %2, i8 noundef zeroext 42, i32 noundef 5, i32 noundef 70, i32 noundef %28, i32 noundef %25, ptr noundef nonnull @.str.1110)
  %30 = zext i16 %29 to i32
  %31 = sub nsw i32 %25, %30
  %32 = icmp slt i32 %31, 1
  br i1 %32, label %41, label %33

33:                                               ; preds = %27
  %34 = add i32 %28, %30
  %35 = tail call zeroext i16 @elem_tlv(ptr noundef %0, ptr noundef %1, ptr noundef %2, i8 noundef zeroext 58, i32 noundef 5, i32 noundef 70, i32 noundef %34, i32 noundef %31, ptr noundef nonnull @.str.1117)
  %36 = zext i16 %35 to i32
  %.not68 = icmp eq i32 %31, %36
  br i1 %.not68, label %41, label %37

37:                                               ; preds = %33
  %38 = sub nsw i32 %31, %36
  %39 = add i32 %34, %36
  %40 = tail call ptr @proto_tree_add_expert(ptr noundef %1, ptr noundef %2, ptr noundef nonnull @ei_gsm_a_gm_extraneous_data, ptr noundef %0, i32 noundef %39, i32 noundef %38)
  br label %41

41:                                               ; preds = %.thread, %33, %37, %27, %22
  ret void
}